; Function Attrs: mustprogress nofree norecurse nosync nounwind willreturn memory(argmem: read) uwtable
define dso_local noundef ptr @_ZN4Luau7CodeGen3X6416IrCallWrapperX6426findNonInterferingArgumentEv(ptr noundef nonnull readonly align 8 dereferenceable(240) %0) local_unnamed_addr #8 align 2 {
  %2 = getelementptr inbounds nuw i8, ptr %0, i64 188
  %3 = load i32, ptr %2, align 4, !tbaa !29
  %.not18 = icmp sgt i32 %3, 0
  br i1 %.not18, label %.lr.ph.split.us.preheader, label %.thread

.lr.ph.split.us.preheader:                        ; preds = %1
  %4 = getelementptr inbounds nuw i8, ptr %0, i64 20
  %wide.trip.count.i = zext nneg i32 %3 to i64
  %5 = getelementptr inbounds nuw i8, ptr %0, i64 202
  %.sroa.03.0.copyload.i = load i8, ptr %5, align 2
  %6 = and i8 %.sroa.03.0.copyload.i, 7
  %7 = icmp ne i8 %6, 5
  %8 = getelementptr inbounds nuw i8, ptr %0, i64 201
  %.sroa.01.0.copyload.i = load i8, ptr %8, align 1
  %9 = and i8 %.sroa.01.0.copyload.i, 7
  %10 = icmp ne i8 %9, 5
  br label %.lr.ph.split.us

.lr.ph.split.us:                                  ; preds = %.lr.ph.split.us.preheader, %_ZNK4Luau7CodeGen3X6416IrCallWrapperX6427interferesWithActiveSourcesERKNS1_12CallArgumentEi.exit.thread.us
  %indvars.iv = phi i64 [ 0, %.lr.ph.split.us.preheader ], [ %indvars.iv.next, %_ZNK4Luau7CodeGen3X6416IrCallWrapperX6427interferesWithActiveSourcesERKNS1_12CallArgumentEi.exit.thread.us ]
  %11 = getelementptr inbounds nuw [6 x %"struct.Luau::CodeGen::X64::CallArgument"], ptr %4, i64 0, i64 %indvars.iv
  %12 = getelementptr inbounds nuw i8, ptr %11, i64 24
  %13 = load i8, ptr %12, align 4, !tbaa !28, !range !87, !noundef !88
  %14 = trunc nuw i8 %13 to i1
  br i1 %14, label %.lr.ph.i.us, label %_ZNK4Luau7CodeGen3X6416IrCallWrapperX6427interferesWithActiveSourcesERKNS1_12CallArgumentEi.exit.thread.us

.lr.ph.i.us:                                      ; preds = %.lr.ph.split.us
  %15 = getelementptr inbounds nuw i8, ptr %11, i64 18
  %.sroa.0.0.copyload.i.us = load i8, ptr %15, align 2
  %16 = and i8 %.sroa.0.0.copyload.i.us, 7
  %17 = icmp eq i8 %16, 5
  br label %18

18:                                               ; preds = %.critedge.i.us, %.lr.ph.i.us
  %indvars.iv.i.us = phi i64 [ 0, %.lr.ph.i.us ], [ %indvars.iv.next.i.us, %.critedge.i.us ]
  %19 = getelementptr inbounds nuw [6 x %"struct.Luau::CodeGen::X64::CallArgument"], ptr %4, i64 0, i64 %indvars.iv.i.us
  %20 = getelementptr inbounds nuw i8, ptr %19, i64 24
  %21 = load i8, ptr %20, align 4, !tbaa !28, !range !87, !noundef !88
  %22 = trunc nuw i8 %21 to i1
  %.not.i.us = icmp ne i64 %indvars.iv.i.us, %indvars.iv
  %or.cond.not.i.us = and i1 %.not.i.us, %22
  br i1 %or.cond.not.i.us, label %23, label %.critedge.i.us

23:                                               ; preds = %18
  %24 = getelementptr inbounds nuw i8, ptr %19, i64 6
  %.sroa.03.0.copyload.i.i.us = load i8, ptr %24, align 2, !tbaa !26
  %25 = and i8 %.sroa.03.0.copyload.i.i.us, 7
  %26 = icmp ne i8 %25, 5
  %27 = xor i1 %17, %26
  %.unshifted.i.i.i.us = xor i8 %.sroa.03.0.copyload.i.i.us, %.sroa.0.0.copyload.i.us
  %28 = icmp ult i8 %.unshifted.i.i.i.us, 8
  %or.cond.i.i.us = and i1 %28, %27
  br i1 %or.cond.i.i.us, label %_ZNK4Luau7CodeGen3X6416IrCallWrapperX6427interferesWithActiveSourcesERKNS1_12CallArgumentEi.exit.thread.us, label %_ZN4Luau7CodeGen3X64L22sameUnderlyingRegisterENS1_11RegisterX64ES2_.exit.thread.i.i.us

_ZN4Luau7CodeGen3X64L22sameUnderlyingRegisterENS1_11RegisterX64ES2_.exit.thread.i.i.us: ; preds = %23
  %29 = getelementptr inbounds nuw i8, ptr %19, i64 5
  %.sroa.01.0.copyload.i.i.us = load i8, ptr %29, align 1, !tbaa !26
  %30 = and i8 %.sroa.01.0.copyload.i.i.us, 7
  %31 = icmp ne i8 %30, 5
  %32 = xor i1 %17, %31
  %.unshifted.i7.i.i.us = xor i8 %.sroa.01.0.copyload.i.i.us, %.sroa.0.0.copyload.i.us
  %33 = icmp ult i8 %.unshifted.i7.i.i.us, 8
  %or.cond16.i.us = and i1 %33, %32
  br i1 %or.cond16.i.us, label %_ZNK4Luau7CodeGen3X6416IrCallWrapperX6427interferesWithActiveSourcesERKNS1_12CallArgumentEi.exit.thread.us, label %.critedge.i.us

.critedge.i.us:                                   ; preds = %_ZN4Luau7CodeGen3X64L22sameUnderlyingRegisterENS1_11RegisterX64ES2_.exit.thread.i.i.us, %18
  %indvars.iv.next.i.us = add nuw nsw i64 %indvars.iv.i.us, 1
  %exitcond.not.i.us = icmp eq i64 %indvars.iv.next.i.us, %wide.trip.count.i
  br i1 %exitcond.not.i.us, label %_ZNK4Luau7CodeGen3X6416IrCallWrapperX6427interferesWithActiveSourcesERKNS1_12CallArgumentEi.exit.loopexit.us, label %18, !llvm.loop !89

_ZN4Luau7CodeGen3X64L22sameUnderlyingRegisterENS1_11RegisterX64ES2_.exit.thread.i.us: ; preds = %_ZNK4Luau7CodeGen3X6416IrCallWrapperX6427interferesWithActiveSourcesERKNS1_12CallArgumentEi.exit.loopexit.us
  %34 = xor i1 %17, %10
  %.unshifted.i7.i.us = xor i8 %.sroa.01.0.copyload.i, %.sroa.0.0.copyload.i.us
  %35 = icmp ult i8 %.unshifted.i7.i.us, 8
  %or.cond.us = and i1 %35, %34
  br i1 %or.cond.us, label %_ZNK4Luau7CodeGen3X6416IrCallWrapperX6427interferesWithActiveSourcesERKNS1_12CallArgumentEi.exit.thread.us, label %.thread

_ZNK4Luau7CodeGen3X6416IrCallWrapperX6427interferesWithActiveSourcesERKNS1_12CallArgumentEi.exit.thread.us: ; preds = %23, %_ZN4Luau7CodeGen3X64L22sameUnderlyingRegisterENS1_11RegisterX64ES2_.exit.thread.i.i.us, %_ZN4Luau7CodeGen3X64L22sameUnderlyingRegisterENS1_11RegisterX64ES2_.exit.thread.i.us, %_ZNK4Luau7CodeGen3X6416IrCallWrapperX6427interferesWithActiveSourcesERKNS1_12CallArgumentEi.exit.loopexit.us, %.lr.ph.split.us
  %indvars.iv.next = add nuw nsw i64 %indvars.iv, 1
  %exitcond.not = icmp eq i64 %indvars.iv.next, %wide.trip.count.i
  br i1 %exitcond.not, label %.thread, label %.lr.ph.split.us, !llvm.loop !90

_ZNK4Luau7CodeGen3X6416IrCallWrapperX6427interferesWithActiveSourcesERKNS1_12CallArgumentEi.exit.loopexit.us: ; preds = %.critedge.i.us
  %36 = xor i1 %17, %7
  %.unshifted.i.i.us = xor i8 %.sroa.03.0.copyload.i, %.sroa.0.0.copyload.i.us
  %37 = icmp ult i8 %.unshifted.i.i.us, 8
  %or.cond.i.us = and i1 %37, %36
  br i1 %or.cond.i.us, label %_ZNK4Luau7CodeGen3X6416IrCallWrapperX6427interferesWithActiveSourcesERKNS1_12CallArgumentEi.exit.thread.us, label %_ZN4Luau7CodeGen3X64L22sameUnderlyingRegisterENS1_11RegisterX64ES2_.exit.thread.i.us

.thread:                                          ; preds = %_ZNK4Luau7CodeGen3X6416IrCallWrapperX6427interferesWithActiveSourcesERKNS1_12CallArgumentEi.exit.thread.us, %_ZN4Luau7CodeGen3X64L22sameUnderlyingRegisterENS1_11RegisterX64ES2_.exit.thread.i.us, %1
  %spec.select = phi ptr [ null, %1 ], [ %11, %_ZN4Luau7CodeGen3X64L22sameUnderlyingRegisterENS1_11RegisterX64ES2_.exit.thread.i.us ], [ null, %_ZNK4Luau7CodeGen3X6416IrCallWrapperX6427interferesWithActiveSourcesERKNS1_12CallArgumentEi.exit.thread.us ]
  ret ptr %spec.select
}